target datalayout = "e-m:e-p270:32:32-p271:32:32-p272:64:64-i64:64-i128:128-f80:128-n8:16:32:64-S128"
target triple = "x86_64-pc-linux-gnu"

; Function Attrs: nounwind uwtable
define internal void @dc_4x4_c(ptr noundef %0, i64 noundef %1, ptr noundef %2, ptr noundef %3) #1 {
  %5 = alloca ptr, align 8
  %6 = alloca i64, align 8
  %7 = alloca ptr, align 8
  %8 = alloca ptr, align 8
  %9 = alloca ptr, align 8
  %10 = alloca ptr, align 8
  %11 = alloca ptr, align 8
  %12 = alloca i64, align 8
  store ptr %0, ptr %5, align 8, !tbaa !10
  store i64 %1, ptr %6, align 8, !tbaa !12
  store ptr %2, ptr %7, align 8, !tbaa !10
  store ptr %3, ptr %8, align 8, !tbaa !10
  call void @llvm.lifetime.start.p0(i64 8, ptr %9) #9
  %13 = load ptr, ptr %5, align 8, !tbaa !10
  store ptr %13, ptr %9, align 8, !tbaa !14
  call void @llvm.lifetime.start.p0(i64 8, ptr %10) #9
  %14 = load ptr, ptr %7, align 8, !tbaa !10
  store ptr %14, ptr %10, align 8, !tbaa !14
  call void @llvm.lifetime.start.p0(i64 8, ptr %11) #9
  %15 = load ptr, ptr %8, align 8, !tbaa !10
  store ptr %15, ptr %11, align 8, !tbaa !14
  call void @llvm.lifetime.start.p0(i64 8, ptr %12) #9
  %16 = load ptr, ptr %10, align 8, !tbaa !14
  %17 = getelementptr inbounds i16, ptr %16, i64 0
  %18 = load i16, ptr %17, align 2, !tbaa !17
  %19 = zext i16 %18 to i32
  %20 = load ptr, ptr %10, align 8, !tbaa !14
  %21 = getelementptr inbounds i16, ptr %20, i64 1
  %22 = load i16, ptr %21, align 2, !tbaa !17
  %23 = zext i16 %22 to i32
  %24 = add nsw i32 %19, %23
  %25 = load ptr, ptr %10, align 8, !tbaa !14
  %26 = getelementptr inbounds i16, ptr %25, i64 2
  %27 = load i16, ptr %26, align 2, !tbaa !17
  %28 = zext i16 %27 to i32
  %29 = add nsw i32 %24, %28
  %30 = load ptr, ptr %10, align 8, !tbaa !14
  %31 = getelementptr inbounds i16, ptr %30, i64 3
  %32 = load i16, ptr %31, align 2, !tbaa !17
  %33 = zext i16 %32 to i32
  %34 = add nsw i32 %29, %33
  %35 = load ptr, ptr %11, align 8, !tbaa !14
  %36 = getelementptr inbounds i16, ptr %35, i64 0
  %37 = load i16, ptr %36, align 2, !tbaa !17
  %38 = zext i16 %37 to i32
  %39 = add nsw i32 %34, %38
  %40 = load ptr, ptr %11, align 8, !tbaa !14
  %41 = getelementptr inbounds i16, ptr %40, i64 1
  %42 = load i16, ptr %41, align 2, !tbaa !17
  %43 = zext i16 %42 to i32
  %44 = add nsw i32 %39, %43
  %45 = load ptr, ptr %11, align 8, !tbaa !14
  %46 = getelementptr inbounds i16, ptr %45, i64 2
  %47 = load i16, ptr %46, align 2, !tbaa !17
  %48 = zext i16 %47 to i32
  %49 = add nsw i32 %44, %48
  %50 = load ptr, ptr %11, align 8, !tbaa !14
  %51 = getelementptr inbounds i16, ptr %50, i64 3
  %52 = load i16, ptr %51, align 2, !tbaa !17
  %53 = zext i16 %52 to i32
  %54 = add nsw i32 %49, %53
  %55 = add nsw i32 %54, 4
  %56 = ashr i32 %55, 3
  %57 = sext i32 %56 to i64
  %58 = mul i64 %57, 281479271743489
  store i64 %58, ptr %12, align 8, !tbaa !12
  %59 = load i64, ptr %6, align 8, !tbaa !12
  %60 = udiv i64 %59, 2
  store i64 %60, ptr %6, align 8, !tbaa !12
  %61 = load i64, ptr %12, align 8, !tbaa !12
  %62 = load ptr, ptr %9, align 8, !tbaa !14
  %63 = load i64, ptr %6, align 8, !tbaa !12
  %64 = mul nsw i64 %63, 0
  %65 = getelementptr inbounds i16, ptr %62, i64 %64
  store i64 %61, ptr %65, align 8, !tbaa !16
  %66 = load i64, ptr %12, align 8, !tbaa !12
  %67 = load ptr, ptr %9, align 8, !tbaa !14
  %68 = load i64, ptr %6, align 8, !tbaa !12
  %69 = mul nsw i64 %68, 1
  %70 = getelementptr inbounds i16, ptr %67, i64 %69
  store i64 %66, ptr %70, align 8, !tbaa !16
  %71 = load i64, ptr %12, align 8, !tbaa !12
  %72 = load ptr, ptr %9, align 8, !tbaa !14
  %73 = load i64, ptr %6, align 8, !tbaa !12
  %74 = mul nsw i64 %73, 2
  %75 = getelementptr inbounds i16, ptr %72, i64 %74
  store i64 %71, ptr %75, align 8, !tbaa !16
  %76 = load i64, ptr %12, align 8, !tbaa !12
  %77 = load ptr, ptr %9, align 8, !tbaa !14
  %78 = load i64, ptr %6, align 8, !tbaa !12
  %79 = mul nsw i64 %78, 3
  %80 = getelementptr inbounds i16, ptr %77, i64 %79
  store i64 %76, ptr %80, align 8, !tbaa !16
  call void @llvm.lifetime.end.p0(i64 8, ptr %12) #9
  call void @llvm.lifetime.end.p0(i64 8, ptr %11) #9
  call void @llvm.lifetime.end.p0(i64 8, ptr %10) #9
  call void @llvm.lifetime.end.p0(i64 8, ptr %9) #9
  ret void
}