; Function Attrs: mustprogress nofree norecurse nosync nounwind willreturn memory(argmem: readwrite) uwtable
define internal void @dc_4x4_c(ptr noundef writeonly captures(none) initializes((0, 8)) %0, i64 noundef %1, ptr noundef readonly captures(none) %2, ptr noundef readonly captures(none) %3) #1 {
  %5 = load i16, ptr %2, align 2, !tbaa !9
  %6 = zext i16 %5 to i64
  %7 = getelementptr inbounds nuw i8, ptr %2, i64 2
  %8 = load i16, ptr %7, align 2, !tbaa !9
  %9 = zext i16 %8 to i64
  %10 = getelementptr inbounds nuw i8, ptr %2, i64 4
  %11 = load i16, ptr %10, align 2, !tbaa !9
  %12 = zext i16 %11 to i64
  %13 = getelementptr inbounds nuw i8, ptr %2, i64 6
  %14 = load i16, ptr %13, align 2, !tbaa !9
  %15 = zext i16 %14 to i64
  %16 = load i16, ptr %3, align 2, !tbaa !9
  %17 = zext i16 %16 to i64
  %18 = getelementptr inbounds nuw i8, ptr %3, i64 2
  %19 = load i16, ptr %18, align 2, !tbaa !9
  %20 = zext i16 %19 to i64
  %21 = getelementptr inbounds nuw i8, ptr %3, i64 4
  %22 = load i16, ptr %21, align 2, !tbaa !9
  %23 = zext i16 %22 to i64
  %24 = getelementptr inbounds nuw i8, ptr %3, i64 6
  %25 = load i16, ptr %24, align 2, !tbaa !9
  %26 = zext i16 %25 to i64
  %27 = add nuw nsw i64 %6, 4
  %28 = add nuw nsw i64 %27, %9
  %29 = add nuw nsw i64 %28, %12
  %30 = add nuw nsw i64 %29, %15
  %31 = add nuw nsw i64 %30, %17
  %32 = add nuw nsw i64 %31, %20
  %33 = add nuw nsw i64 %32, %23
  %34 = add nuw nsw i64 %33, %26
  %35 = lshr i64 %34, 3
  %36 = mul nuw i64 %35, 281479271743489
  %37 = lshr i64 %1, 1
  store i64 %36, ptr %0, align 8, !tbaa !8
  %38 = getelementptr inbounds nuw i16, ptr %0, i64 %37
  store i64 %36, ptr %38, align 8, !tbaa !8
  %39 = and i64 %1, -2
  %40 = getelementptr inbounds nuw i16, ptr %0, i64 %39
  store i64 %36, ptr %40, align 8, !tbaa !8
  %.idx = mul nuw nsw i64 %37, 6
  %41 = getelementptr inbounds nuw i8, ptr %0, i64 %.idx
  store i64 %36, ptr %41, align 8, !tbaa !8
  ret void
}